target datalayout = "e-m:e-p270:32:32-p271:32:32-p272:64:64-i64:64-i128:128-f80:128-n8:16:32:64-S128"
target triple = "x86_64-pc-linux-gnu"

%"class.llvm::SmallVectorBase" = type { ptr, i32, i32 }
%"class.llvm::MachineFunctionProperties" = type { %"class.std::bitset" }
%"class.std::bitset" = type { %"struct.std::_Base_bitset" }
%"struct.std::_Base_bitset" = type { i64 }
%"class.llvm::SmallVectorImpl.53" = type { %"class.llvm::SmallVectorTemplateBase.54" }
%"class.llvm::SmallVectorTemplateBase.54" = type { %"class.llvm::SmallVectorTemplateCommon.55" }
%"class.llvm::SmallVectorTemplateCommon.55" = type { %"class.llvm::SmallVectorBase" }
%"class.llvm::MachineFunction" = type <{ ptr, ptr, ptr, ptr, ptr, ptr, ptr, ptr, ptr, ptr, ptr, ptr, %"class.std::vector.78", i32, [4 x i8], %"class.llvm::BumpPtrAllocatorImpl", %"class.llvm::Recycler", %"class.llvm::ArrayRecycler", %"class.llvm::Recycler.99", %"class.llvm::iplist", i32, %"struct.llvm::Align", i8, i8, i8, %"class.llvm::MachineFunctionProperties", %"class.std::unique_ptr.100", %"class.std::vector.108", %"class.std::vector.113", %"class.std::vector.113", %"class.std::vector.118", %"class.llvm::DenseMap.123", %"class.llvm::DenseMap.126", %"class.llvm::DenseMap.129", %"class.std::vector.132", i8, i8, i8, i8, i8, i8, [2 x i8], i32, i32, %"class.std::vector.137", %"class.std::vector.142", %"class.std::vector.142", i32, [4 x i8], ptr, ptr, %"class.llvm::DenseMap.147", %"class.llvm::SmallVector.150", i32, [4 x i8], %"class.llvm::SmallVector.155", %"class.llvm::DenseMap.160", i8, [7 x i8] }>
%"class.std::vector.78" = type { %"struct.std::_Vector_base.79" }
%"struct.std::_Vector_base.79" = type { %"struct.std::_Vector_base<llvm::MachineBasicBlock *, std::allocator<llvm::MachineBasicBlock *>>::_Vector_impl" }
%"struct.std::_Vector_base<llvm::MachineBasicBlock *, std::allocator<llvm::MachineBasicBlock *>>::_Vector_impl" = type { %"struct.std::_Vector_base<llvm::MachineBasicBlock *, std::allocator<llvm::MachineBasicBlock *>>::_Vector_impl_data" }
%"struct.std::_Vector_base<llvm::MachineBasicBlock *, std::allocator<llvm::MachineBasicBlock *>>::_Vector_impl_data" = type { ptr, ptr, ptr }
%"class.llvm::BumpPtrAllocatorImpl" = type { ptr, ptr, %"class.llvm::SmallVector.84", %"class.llvm::SmallVector.89", i64, i64 }
%"class.llvm::SmallVector.84" = type { %"class.llvm::SmallVectorImpl.85", %"struct.llvm::SmallVectorStorage.88" }
%"class.llvm::SmallVectorImpl.85" = type { %"class.llvm::SmallVectorTemplateBase.86" }
%"class.llvm::SmallVectorTemplateBase.86" = type { %"class.llvm::SmallVectorTemplateCommon.87" }
%"class.llvm::SmallVectorTemplateCommon.87" = type { %"class.llvm::SmallVectorBase" }
%"struct.llvm::SmallVectorStorage.88" = type { [32 x i8] }
%"class.llvm::SmallVector.89" = type { %"class.llvm::SmallVectorImpl.90" }
%"class.llvm::SmallVectorImpl.90" = type { %"class.llvm::SmallVectorTemplateBase.91" }
%"class.llvm::SmallVectorTemplateBase.91" = type { %"class.llvm::SmallVectorTemplateCommon.92" }
%"class.llvm::SmallVectorTemplateCommon.92" = type { %"class.llvm::SmallVectorBase" }
%"class.llvm::Recycler" = type { ptr }
%"class.llvm::ArrayRecycler" = type { %"class.llvm::SmallVector.94" }
%"class.llvm::SmallVector.94" = type { %"class.llvm::SmallVectorImpl.95", %"struct.llvm::SmallVectorStorage.98" }
%"class.llvm::SmallVectorImpl.95" = type { %"class.llvm::SmallVectorTemplateBase.96" }
%"class.llvm::SmallVectorTemplateBase.96" = type { %"class.llvm::SmallVectorTemplateCommon.97" }
%"class.llvm::SmallVectorTemplateCommon.97" = type { %"class.llvm::SmallVectorBase" }
%"struct.llvm::SmallVectorStorage.98" = type { [64 x i8] }
%"class.llvm::Recycler.99" = type { ptr }
%"class.llvm::iplist" = type { %"class.llvm::iplist_impl" }
%"class.llvm::iplist_impl" = type { %"class.llvm::simple_ilist" }
%"class.llvm::simple_ilist" = type { %"class.llvm::ilist_sentinel" }
%"class.llvm::ilist_sentinel" = type { %"class.llvm::ilist_node_impl" }
%"class.llvm::ilist_node_impl" = type { %"class.llvm::ilist_node_base" }
%"class.llvm::ilist_node_base" = type { %"class.llvm::ilist_detail::node_base_prevnext" }
%"class.llvm::ilist_detail::node_base_prevnext" = type { ptr, ptr }
%"struct.llvm::Align" = type { i8 }
%"class.std::unique_ptr.100" = type { %"struct.std::__uniq_ptr_data.101" }
%"struct.std::__uniq_ptr_data.101" = type { %"class.std::__uniq_ptr_impl.102" }
%"class.std::__uniq_ptr_impl.102" = type { %"class.std::tuple.103" }
%"class.std::tuple.103" = type { %"struct.std::_Tuple_impl.104" }
%"struct.std::_Tuple_impl.104" = type { %"struct.std::_Head_base.107" }
%"struct.std::_Head_base.107" = type { ptr }
%"class.std::vector.108" = type { %"struct.std::_Vector_base.109" }
%"struct.std::_Vector_base.109" = type { %"struct.std::_Vector_base<llvm::MCCFIInstruction, std::allocator<llvm::MCCFIInstruction>>::_Vector_impl" }
%"struct.std::_Vector_base<llvm::MCCFIInstruction, std::allocator<llvm::MCCFIInstruction>>::_Vector_impl" = type { %"struct.std::_Vector_base<llvm::MCCFIInstruction, std::allocator<llvm::MCCFIInstruction>>::_Vector_impl_data" }
%"struct.std::_Vector_base<llvm::MCCFIInstruction, std::allocator<llvm::MCCFIInstruction>>::_Vector_impl_data" = type { ptr, ptr, ptr }
%"class.std::vector.113" = type { %"struct.std::_Vector_base.114" }
%"struct.std::_Vector_base.114" = type { %"struct.std::_Vector_base<llvm::MCSymbol *, std::allocator<llvm::MCSymbol *>>::_Vector_impl" }
%"struct.std::_Vector_base<llvm::MCSymbol *, std::allocator<llvm::MCSymbol *>>::_Vector_impl" = type { %"struct.std::_Vector_base<llvm::MCSymbol *, std::allocator<llvm::MCSymbol *>>::_Vector_impl_data" }
%"struct.std::_Vector_base<llvm::MCSymbol *, std::allocator<llvm::MCSymbol *>>::_Vector_impl_data" = type { ptr, ptr, ptr }
%"class.std::vector.118" = type { %"struct.std::_Vector_base.119" }
%"struct.std::_Vector_base.119" = type { %"struct.std::_Vector_base<llvm::LandingPadInfo, std::allocator<llvm::LandingPadInfo>>::_Vector_impl" }
%"struct.std::_Vector_base<llvm::LandingPadInfo, std::allocator<llvm::LandingPadInfo>>::_Vector_impl" = type { %"struct.std::_Vector_base<llvm::LandingPadInfo, std::allocator<llvm::LandingPadInfo>>::_Vector_impl_data" }
%"struct.std::_Vector_base<llvm::LandingPadInfo, std::allocator<llvm::LandingPadInfo>>::_Vector_impl_data" = type { ptr, ptr, ptr }
%"class.llvm::DenseMap.123" = type <{ ptr, i32, i32, i32, [4 x i8] }>
%"class.llvm::DenseMap.126" = type <{ ptr, i32, i32, i32, [4 x i8] }>
%"class.llvm::DenseMap.129" = type <{ ptr, i32, i32, i32, [4 x i8] }>
%"class.std::vector.132" = type { %"struct.std::_Vector_base.133" }
%"struct.std::_Vector_base.133" = type { %"struct.std::_Vector_base<std::pair<llvm::MCSymbol *, llvm::MDNode *>, std::allocator<std::pair<llvm::MCSymbol *, llvm::MDNode *>>>::_Vector_impl" }
%"struct.std::_Vector_base<std::pair<llvm::MCSymbol *, llvm::MDNode *>, std::allocator<std::pair<llvm::MCSymbol *, llvm::MDNode *>>>::_Vector_impl" = type { %"struct.std::_Vector_base<std::pair<llvm::MCSymbol *, llvm::MDNode *>, std::allocator<std::pair<llvm::MCSymbol *, llvm::MDNode *>>>::_Vector_impl_data" }
%"struct.std::_Vector_base<std::pair<llvm::MCSymbol *, llvm::MDNode *>, std::allocator<std::pair<llvm::MCSymbol *, llvm::MDNode *>>>::_Vector_impl_data" = type { ptr, ptr, ptr }
%"class.std::vector.137" = type { %"struct.std::_Vector_base.138" }
%"struct.std::_Vector_base.138" = type { %"struct.std::_Vector_base<const llvm::GlobalValue *, std::allocator<const llvm::GlobalValue *>>::_Vector_impl" }
%"struct.std::_Vector_base<const llvm::GlobalValue *, std::allocator<const llvm::GlobalValue *>>::_Vector_impl" = type { %"struct.std::_Vector_base<const llvm::GlobalValue *, std::allocator<const llvm::GlobalValue *>>::_Vector_impl_data" }
%"struct.std::_Vector_base<const llvm::GlobalValue *, std::allocator<const llvm::GlobalValue *>>::_Vector_impl_data" = type { ptr, ptr, ptr }
%"class.std::vector.142" = type { %"struct.std::_Vector_base.143" }
%"struct.std::_Vector_base.143" = type { %"struct.std::_Vector_base<unsigned int, std::allocator<unsigned int>>::_Vector_impl" }
%"struct.std::_Vector_base<unsigned int, std::allocator<unsigned int>>::_Vector_impl" = type { %"struct.std::_Vector_base<unsigned int, std::allocator<unsigned int>>::_Vector_impl_data" }
%"struct.std::_Vector_base<unsigned int, std::allocator<unsigned int>>::_Vector_impl_data" = type { ptr, ptr, ptr }
%"class.llvm::DenseMap.147" = type <{ ptr, i32, i32, i32, [4 x i8] }>
%"class.llvm::SmallVector.150" = type { %"class.llvm::SmallVectorImpl.151", %"struct.llvm::SmallVectorStorage.154" }
%"class.llvm::SmallVectorImpl.151" = type { %"class.llvm::SmallVectorTemplateBase.152" }
%"class.llvm::SmallVectorTemplateBase.152" = type { %"class.llvm::SmallVectorTemplateCommon.153" }
%"class.llvm::SmallVectorTemplateCommon.153" = type { %"class.llvm::SmallVectorBase" }
%"struct.llvm::SmallVectorStorage.154" = type { [128 x i8] }
%"class.llvm::SmallVector.155" = type { %"class.llvm::SmallVectorImpl.156", %"struct.llvm::SmallVectorStorage.159" }
%"class.llvm::SmallVectorImpl.156" = type { %"class.llvm::SmallVectorTemplateBase.157" }
%"class.llvm::SmallVectorTemplateBase.157" = type { %"class.llvm::SmallVectorTemplateCommon.158" }
%"class.llvm::SmallVectorTemplateCommon.158" = type { %"class.llvm::SmallVectorBase" }
%"struct.llvm::SmallVectorStorage.159" = type { [160 x i8] }
%"class.llvm::DenseMap.160" = type <{ ptr, i32, i32, i32, [4 x i8] }>
%"class.llvm::ScheduleDAG" = type { ptr, ptr, ptr, ptr, ptr, ptr, %"class.std::vector.420", %"class.llvm::SUnit", %"class.llvm::SUnit" }
%"class.std::vector.420" = type { %"struct.std::_Vector_base.421" }
%"struct.std::_Vector_base.421" = type { %"struct.std::_Vector_base<llvm::SUnit, std::allocator<llvm::SUnit>>::_Vector_impl" }
%"struct.std::_Vector_base<llvm::SUnit, std::allocator<llvm::SUnit>>::_Vector_impl" = type { %"struct.std::_Vector_base<llvm::SUnit, std::allocator<llvm::SUnit>>::_Vector_impl_data" }
%"struct.std::_Vector_base<llvm::SUnit, std::allocator<llvm::SUnit>>::_Vector_impl_data" = type { ptr, ptr, ptr }
%"class.llvm::SUnit" = type <{ %union.anon.425, ptr, ptr, ptr, ptr, %"class.llvm::SmallVector.426", %"class.llvm::SmallVector.426", i32, i32, i32, i32, i32, i32, i32, i32, i32, i32, i32, i32, i16, i16, i16, i8, i8 }>
%union.anon.425 = type { ptr }
%"class.llvm::SmallVector.426" = type { %"class.llvm::SmallVectorImpl.427", %"struct.llvm::SmallVectorStorage.430" }
%"class.llvm::SmallVectorImpl.427" = type { %"class.llvm::SmallVectorTemplateBase.428" }
%"class.llvm::SmallVectorTemplateBase.428" = type { %"class.llvm::SmallVectorTemplateCommon.429" }
%"class.llvm::SmallVectorTemplateCommon.429" = type { %"class.llvm::SmallVectorBase" }
%"struct.llvm::SmallVectorStorage.430" = type { [64 x i8] }
%"class.llvm::ResourceManager" = type { ptr, ptr, ptr, ptr, ptr, i8, %"class.llvm::SmallVector.556", %"class.llvm::SmallVector.561", %"class.llvm::SmallVector.566", %"class.llvm::SmallVector.571", i32, i32 }
%"class.llvm::SmallVector.556" = type { %"class.llvm::SmallVectorImpl.557", %"struct.llvm::SmallVectorStorage.560" }
%"class.llvm::SmallVectorImpl.557" = type { %"class.llvm::SmallVectorTemplateBase.558" }
%"class.llvm::SmallVectorTemplateBase.558" = type { %"class.llvm::SmallVectorTemplateCommon.559" }
%"class.llvm::SmallVectorTemplateCommon.559" = type { %"class.llvm::SmallVectorBase" }
%"struct.llvm::SmallVectorStorage.560" = type { [48 x i8] }
%"class.llvm::SmallVector.561" = type { %"class.llvm::SmallVectorImpl.562", %"struct.llvm::SmallVectorStorage.565" }
%"class.llvm::SmallVectorImpl.562" = type { %"class.llvm::SmallVectorTemplateBase.563" }
%"class.llvm::SmallVectorTemplateBase.563" = type { %"class.llvm::SmallVectorTemplateCommon.564" }
%"class.llvm::SmallVectorTemplateCommon.564" = type { %"class.llvm::SmallVectorBase" }
%"struct.llvm::SmallVectorStorage.565" = type { [144 x i8] }
%"class.llvm::SmallVector.566" = type { %"class.llvm::SmallVectorImpl.567", %"struct.llvm::SmallVectorStorage.570" }
%"class.llvm::SmallVectorImpl.567" = type { %"class.llvm::SmallVectorTemplateBase.568" }
%"class.llvm::SmallVectorTemplateBase.568" = type { %"class.llvm::SmallVectorTemplateCommon.569" }
%"class.llvm::SmallVectorTemplateCommon.569" = type { %"class.llvm::SmallVectorBase" }
%"struct.llvm::SmallVectorStorage.570" = type { [48 x i8] }
%"class.llvm::SmallVector.571" = type { %"class.llvm::SmallVectorImpl.53", %"struct.llvm::SmallVectorStorage.572" }
%"struct.llvm::SmallVectorStorage.572" = type { [128 x i8] }

; Function Attrs: mustprogress nounwind uwtable
define linkonce_odr hidden noundef nonnull align 8 dereferenceable(288) ptr @_ZNK4llvm15MachineFunction12getSubtargetEv(ptr noundef nonnull align 8 dereferenceable(1041) %0) #1 comdat align 2 {
  %2 = alloca ptr, align 8
  store ptr %0, ptr %2, align 8
  %3 = load ptr, ptr %2, align 8
  %4 = getelementptr inbounds nuw %"class.llvm::MachineFunction", ptr %3, i32 0, i32 2
  %5 = load ptr, ptr %4, align 8
  ret ptr %5
}

; Function Attrs: mustprogress nounwind uwtable
define dso_local noundef i32 @_ZN4llvm17SwingSchedulerDAG15calculateResMIIEv(ptr noundef nonnull align 8 dereferenceable(3240) %0) #1 align 2 {
  %2 = alloca ptr, align 8
  %3 = alloca %"class.llvm::ResourceManager", align 8
  store ptr %0, ptr %2, align 8
  %4 = load ptr, ptr %2, align 8
  br label %5

5:                                                ; preds = %1
  br label %6

6:                                                ; preds = %5
  %7 = getelementptr inbounds nuw %"class.llvm::ScheduleDAG", ptr %4, i32 0, i32 4
  %8 = load ptr, ptr %7, align 8
  %9 = call noundef nonnull align 8 dereferenceable(288) ptr @_ZNK4llvm15MachineFunction12getSubtargetEv(ptr noundef nonnull align 8 dereferenceable(1041) %8)
  call void @_ZN4llvm15ResourceManagerC2EPKNS_19TargetSubtargetInfoEPNS_17ScheduleDAGInstrsE(ptr noundef nonnull align 8 dereferenceable(488) %3, ptr noundef %9, ptr noundef %4)
  %10 = call noundef i32 @_ZNK4llvm15ResourceManager15calculateResMIIEv(ptr noundef nonnull align 8 dereferenceable(488) %3)
  call void @_ZN4llvm15ResourceManagerD2Ev(ptr noundef nonnull align 8 dereferenceable(488) %3) #2
  ret i32 %10
}