; Function Attrs: mustprogress nounwind uwtable
define dso_local noundef i32 @_ZN4llvm17SwingSchedulerDAG15calculateResMIIEv(ptr noundef nonnull align 8 dereferenceable(3240) %0) local_unnamed_addr #0 align 2 {
  %2 = alloca %"class.llvm::ResourceManager", align 8
  %3 = getelementptr inbounds nuw i8, ptr %0, i64 32
  %4 = load ptr, ptr %3, align 8
  %5 = getelementptr inbounds nuw i8, ptr %4, i64 16
  %6 = load ptr, ptr %5, align 8
  call void @_ZN4llvm15ResourceManagerC2EPKNS_19TargetSubtargetInfoEPNS_17ScheduleDAGInstrsE(ptr noundef nonnull align 8 dereferenceable(488) %2, ptr noundef nonnull %6, ptr noundef nonnull %0)
  %7 = call noundef i32 @_ZNK4llvm15ResourceManager15calculateResMIIEv(ptr noundef nonnull align 8 dereferenceable(488) %2)
  call void @_ZN4llvm15ResourceManagerD2Ev(ptr noundef nonnull align 8 dereferenceable(488) %2) #25
  ret i32 %7
}